target datalayout = "e-m:e-p270:32:32-p271:32:32-p272:64:64-i64:64-i128:128-f80:128-n8:16:32:64-S128"
target triple = "x86_64-pc-linux-gnu"

%struct.Vmem = type { ptr, i64, i64 }
%struct.ParseContext_ = type { %struct.TokenData, i32, %union.SourceSpan, %union.SourceSpan, ptr, %struct.Lexer }
%struct.TokenData = type { ptr, i64, %union.anon.86 }
%union.anon.86 = type { %struct.anon.89 }
%struct.anon.89 = type { %struct.Int128_, i8 }
%struct.Int128_ = type { i64, i64 }
%union.SourceSpan = type { i64 }
%struct.Lexer = type { ptr, ptr, ptr, ptr, i32, i32, ptr, ptr, ptr, %struct.TokenData, %union.SourceSpan, i32, i32 }
%struct.Ast_ = type { %union.SourceSpan, i32, i8, %union.anon.62 }
%union.anon.62 = type { %struct.AstDocDirective_ }
%struct.AstDocDirective_ = type { i8, %union.anon.65 }
%union.anon.65 = type { %struct.anon.66 }
%struct.anon.66 = type { ptr, %union.SourceSpan, i8 }
%struct.AstCompoundStmt = type { i32 }
%struct.anon.0 = type { i16, i8, i8, i32 }

@poisoned_ast = external global ptr, align 8
@.str.12 = private unnamed_addr constant [15 x i8] c"Expected '%s'.\00", align 1
@ast_arena = external global %struct.Vmem, align 8

; Function Attrs: nounwind uwtable
define internal i64 @extend_span_with_token(i64 %0, i64 %1) #0 {
  %3 = alloca %union.SourceSpan, align 8
  %4 = alloca %union.SourceSpan, align 8
  %5 = alloca %union.SourceSpan, align 8
  %6 = getelementptr inbounds %union.SourceSpan, ptr %4, i32 0, i32 0
  store i64 %0, ptr %6, align 8
  %7 = getelementptr inbounds %union.SourceSpan, ptr %5, i32 0, i32 0
  store i64 %1, ptr %7, align 8
  %8 = getelementptr inbounds %struct.anon.0, ptr %4, i32 0, i32 3
  %9 = load i32, ptr %8, align 4
  %10 = getelementptr inbounds %struct.anon.0, ptr %5, i32 0, i32 3
  %11 = load i32, ptr %10, align 4
  %12 = icmp ne i32 %9, %11
  br i1 %12, label %13, label %14

13:                                               ; preds = %2
  call void @llvm.memcpy.p0.p0.i64(ptr align 8 %3, ptr align 8 %4, i64 8, i1 false)
  br label %28

14:                                               ; preds = %2
  %15 = getelementptr inbounds %struct.anon.0, ptr %5, i32 0, i32 2
  %16 = load i8, ptr %15, align 1
  %17 = zext i8 %16 to i32
  %18 = getelementptr inbounds %struct.anon.0, ptr %5, i32 0, i32 1
  %19 = load i8, ptr %18, align 2
  %20 = zext i8 %19 to i32
  %21 = add nsw i32 %17, %20
  %22 = getelementptr inbounds %struct.anon.0, ptr %4, i32 0, i32 2
  %23 = load i8, ptr %22, align 1
  %24 = zext i8 %23 to i32
  %25 = sub nsw i32 %21, %24
  %26 = trunc i32 %25 to i8
  %27 = getelementptr inbounds %struct.anon.0, ptr %4, i32 0, i32 1
  store i8 %26, ptr %27, align 2
  call void @llvm.memcpy.p0.p0.i64(ptr align 8 %3, ptr align 8 %4, i64 8, i1 false)
  br label %28

28:                                               ; preds = %14, %13
  %29 = getelementptr inbounds %union.SourceSpan, ptr %3, i32 0, i32 0
  %30 = load i64, ptr %29, align 8
  ret i64 %30
}

; Function Attrs: nounwind uwtable
define internal i32 @astid(ptr noundef %0) #0 {
  %2 = alloca ptr, align 8
  store ptr %0, ptr %2, align 8
  %3 = load ptr, ptr %2, align 8
  %4 = load ptr, ptr @ast_arena, align 8
  %5 = ptrtoint ptr %3 to i64
  %6 = ptrtoint ptr %4 to i64
  %7 = sub i64 %5, %6
  %8 = sdiv exact i64 %7, 48
  %9 = trunc i64 %8 to i32
  ret i32 %9
}

; Function Attrs: nounwind uwtable
define internal ptr @ast_calloc() #0 {
  %1 = call ptr @vmem_alloc(ptr noundef @ast_arena, i64 noundef 48)
  ret ptr %1
}

; Function Attrs: nounwind uwtable
define dso_local ptr @parse_compound_stmt(ptr noundef %0) #0 {
  %2 = alloca ptr, align 8
  %3 = alloca i32, align 4
  %4 = alloca %union.SourceSpan, align 8
  %5 = alloca i32, align 4
  %6 = alloca ptr, align 8
  %7 = alloca ptr, align 8
  %8 = alloca ptr, align 8
  %9 = alloca ptr, align 8
  %10 = alloca i32, align 4
  %11 = alloca ptr, align 8
  %12 = alloca i1, align 1
  %13 = alloca ptr, align 8
  %14 = alloca i32, align 4
  %15 = alloca ptr, align 8
  %16 = alloca ptr, align 8
  %17 = alloca ptr, align 8
  %18 = alloca ptr, align 8
  %19 = alloca ptr, align 8
  %20 = alloca ptr, align 8
  %21 = alloca %union.SourceSpan, align 8
  store ptr %0, ptr %16, align 8
  %22 = load ptr, ptr %16, align 8
  store ptr %22, ptr %9, align 8
  store i32 6, ptr %10, align 4
  %23 = load i32, ptr %10, align 4
  %24 = load ptr, ptr %9, align 8
  %25 = getelementptr inbounds %struct.ParseContext_, ptr %24, i32 0, i32 2
  %26 = load i64, ptr %25, align 8
  store i64 %26, ptr %4, align 8
  store i32 %23, ptr %5, align 4
  %27 = call ptr @ast_calloc()
  store ptr %27, ptr %6, align 8
  %28 = load ptr, ptr %6, align 8
  call void @llvm.memcpy.p0.p0.i64(ptr align 8 %28, ptr align 8 %4, i64 8, i1 false)
  %29 = load i32, ptr %5, align 4
  %30 = load ptr, ptr %6, align 8
  %31 = getelementptr inbounds %struct.Ast_, ptr %30, i32 0, i32 2
  %32 = trunc i32 %29 to i8
  store i8 %32, ptr %31, align 4
  %33 = load ptr, ptr %6, align 8
  store ptr %33, ptr %17, align 8
  br label %34

34:                                               ; preds = %1
  %35 = load ptr, ptr %16, align 8
  store ptr %35, ptr %13, align 8
  store i32 17, ptr %14, align 4
  %36 = load ptr, ptr %13, align 8
  %37 = load i32, ptr %14, align 4
  store ptr %36, ptr %2, align 8
  store i32 %37, ptr %3, align 4
  %38 = load ptr, ptr %2, align 8
  %39 = getelementptr inbounds %struct.ParseContext_, ptr %38, i32 0, i32 1
  %40 = load i32, ptr %39, align 8
  %41 = load i32, ptr %3, align 4
  %42 = icmp eq i32 %40, %41
  br i1 %42, label %43, label %44

43:                                               ; preds = %34
  store i1 true, ptr %12, align 1
  br label %50

44:                                               ; preds = %34
  %45 = load ptr, ptr %13, align 8
  %46 = getelementptr inbounds %struct.ParseContext_, ptr %45, i32 0, i32 2
  %47 = load i32, ptr %14, align 4
  %48 = call ptr @token_type_to_string(i32 noundef %47) #4
  %49 = load i64, ptr %46, align 8
  call void (i64, ptr, ...) @sema_error_at(i64 %49, ptr noundef @.str.12, ptr noundef %48) #4
  store i1 false, ptr %12, align 1
  br label %50

50:                                               ; preds = %44, %43
  %51 = load i1, ptr %12, align 1
  br i1 %51, label %54, label %52

52:                                               ; preds = %50
  %53 = load ptr, ptr @poisoned_ast, align 8
  store ptr %53, ptr %15, align 8
  br label %106

54:                                               ; preds = %50
  %55 = load ptr, ptr %16, align 8
  call void @advance(ptr noundef %55)
  br label %56

56:                                               ; preds = %54
  %57 = load ptr, ptr %17, align 8
  %58 = getelementptr inbounds %struct.Ast_, ptr %57, i32 0, i32 3
  %59 = getelementptr inbounds %struct.AstCompoundStmt, ptr %58, i32 0, i32 0
  store ptr %59, ptr %18, align 8
  br label %60

60:                                               ; preds = %80, %56
  %61 = load ptr, ptr %16, align 8
  %62 = call zeroext i1 @try_consume(ptr noundef %61, i32 noundef 24)
  %63 = xor i1 %62, true
  br i1 %63, label %64, label %90

64:                                               ; preds = %60
  %65 = load ptr, ptr %16, align 8
  %66 = call ptr @parse_stmt(ptr noundef %65)
  store ptr %66, ptr %19, align 8
  %67 = load ptr, ptr %19, align 8
  store ptr %67, ptr %11, align 8
  %68 = load ptr, ptr %11, align 8
  %69 = icmp eq ptr %68, null
  br i1 %69, label %76, label %70

70:                                               ; preds = %64
  %71 = load ptr, ptr %11, align 8
  %72 = getelementptr inbounds %struct.Ast_, ptr %71, i32 0, i32 2
  %73 = load i8, ptr %72, align 4
  %74 = zext i8 %73 to i32
  %75 = icmp ne i32 %74, 0
  br label %76

76:                                               ; preds = %70, %64
  %77 = phi i1 [ true, %64 ], [ %75, %70 ]
  br i1 %77, label %80, label %78

78:                                               ; preds = %76
  %79 = load ptr, ptr @poisoned_ast, align 8
  store ptr %79, ptr %15, align 8
  br label %106

80:                                               ; preds = %76
  %81 = load ptr, ptr %19, align 8
  store ptr %81, ptr %20, align 8
  %82 = load ptr, ptr %20, align 8
  store ptr %18, ptr %7, align 8
  store ptr %82, ptr %8, align 8
  %83 = load ptr, ptr %8, align 8
  %84 = call i32 @astid(ptr noundef %83)
  %85 = load ptr, ptr %7, align 8
  %86 = load ptr, ptr %85, align 8
  store i32 %84, ptr %86, align 4
  %87 = load ptr, ptr %8, align 8
  %88 = getelementptr inbounds %struct.Ast_, ptr %87, i32 0, i32 1
  %89 = load ptr, ptr %7, align 8
  store ptr %88, ptr %89, align 8
  br label %60, !llvm.loop !9

90:                                               ; preds = %60
  br label %91

91:                                               ; preds = %90
  %92 = load ptr, ptr %17, align 8
  %93 = getelementptr inbounds %struct.Ast_, ptr %92, i32 0, i32 0
  %94 = load ptr, ptr %17, align 8
  %95 = getelementptr inbounds %struct.Ast_, ptr %94, i32 0, i32 0
  %96 = load ptr, ptr %16, align 8
  %97 = getelementptr inbounds %struct.ParseContext_, ptr %96, i32 0, i32 3
  %98 = getelementptr inbounds %union.SourceSpan, ptr %95, i32 0, i32 0
  %99 = load i64, ptr %98, align 8
  %100 = getelementptr inbounds %union.SourceSpan, ptr %97, i32 0, i32 0
  %101 = load i64, ptr %100, align 8
  %102 = call i64 @extend_span_with_token(i64 %99, i64 %101)
  %103 = getelementptr inbounds %union.SourceSpan, ptr %21, i32 0, i32 0
  store i64 %102, ptr %103, align 8
  call void @llvm.memcpy.p0.p0.i64(ptr align 8 %93, ptr align 8 %21, i64 8, i1 false)
  br label %104

104:                                              ; preds = %91
  %105 = load ptr, ptr %17, align 8
  store ptr %105, ptr %15, align 8
  br label %106

106:                                              ; preds = %104, %78, %52
  %107 = load ptr, ptr %15, align 8
  ret ptr %107
}