; Function Attrs: nounwind uwtable
define dso_local ptr @parse_compound_stmt(ptr noundef %0) local_unnamed_addr #0 {
  %2 = getelementptr inbounds i8, ptr %0, i64 48
  %3 = load i64, ptr %2, align 8
  %4 = tail call ptr @vmem_alloc(ptr noundef nonnull @ast_arena, i64 noundef 48) #5
  store i64 %3, ptr %4, align 8
  %5 = getelementptr inbounds i8, ptr %4, i64 12
  store i8 6, ptr %5, align 4
  %6 = getelementptr inbounds i8, ptr %0, i64 40
  %7 = load i32, ptr %6, align 8
  %8 = icmp eq i32 %7, 17
  br i1 %8, label %.critedge38, label %9

9:                                                ; preds = %1
  %10 = tail call ptr @token_type_to_string(i32 noundef 17) #5
  %11 = load i64, ptr %2, align 8
  tail call void (i64, ptr, ...) @sema_error_at(i64 %11, ptr noundef nonnull @.str.12, ptr noundef %10) #5
  %12 = load ptr, ptr @poisoned_ast, align 8
  br label %40

.critedge38:                                      ; preds = %1
  tail call void @advance(ptr noundef nonnull %0) #5
  %13 = tail call zeroext i1 @try_consume(ptr noundef nonnull %0, i32 noundef 24) #5
  br i1 %13, label %._crit_edge, label %.lr.ph.preheader

.lr.ph.preheader:                                 ; preds = %.critedge38
  %14 = getelementptr inbounds i8, ptr %4, i64 16
  br label %.lr.ph

.lr.ph:                                           ; preds = %.lr.ph.preheader, %.critedge
  %.03439 = phi ptr [ %25, %.critedge ], [ %14, %.lr.ph.preheader ]
  %15 = tail call ptr @parse_stmt(ptr noundef %0)
  %16 = icmp eq ptr %15, null
  br i1 %16, label %.critedge, label %17

17:                                               ; preds = %.lr.ph
  %18 = getelementptr inbounds i8, ptr %15, i64 12
  %19 = load i8, ptr %18, align 4
  %.not = icmp eq i8 %19, 0
  br i1 %.not, label %21, label %.split

.split:                                           ; preds = %17
  %20 = ptrtoint ptr %15 to i64
  br label %.critedge

21:                                               ; preds = %17
  %22 = load ptr, ptr @poisoned_ast, align 8
  br label %40

.critedge:                                        ; preds = %.lr.ph, %.split
  %.sink = phi i64 [ %20, %.split ], [ 0, %.lr.ph ]
  %.sink41 = load ptr, ptr @ast_arena, align 8
  %23 = ptrtoint ptr %.sink41 to i64
  %24 = sub i64 %.sink, %23
  %phi.call.in = sdiv exact i64 %24, 48
  %phi.call = trunc i64 %phi.call.in to i32
  store i32 %phi.call, ptr %.03439, align 4
  %25 = getelementptr inbounds i8, ptr %15, i64 8
  %26 = tail call zeroext i1 @try_consume(ptr noundef %0, i32 noundef 24) #5
  br i1 %26, label %._crit_edge, label %.lr.ph, !llvm.loop !10

._crit_edge:                                      ; preds = %.critedge, %.critedge38
  %27 = getelementptr inbounds i8, ptr %0, i64 56
  %28 = load i64, ptr %4, align 8
  %29 = load i64, ptr %27, align 8
  %.not.unshifted.i = xor i64 %29, %28
  %.not.i = icmp ult i64 %.not.unshifted.i, 4294967296
  br i1 %.not.i, label %31, label %30

30:                                               ; preds = %._crit_edge
  %.sroa.33.0.extract.shift.i = lshr i64 %28, 16
  br label %extend_span_with_token.exit

31:                                               ; preds = %._crit_edge
  %.sroa.4.0.extract.shift.i = lshr i64 %28, 24
  %32 = trunc i64 %29 to i32
  %33 = lshr i32 %32, 24
  %34 = lshr i32 %32, 16
  %35 = trunc i64 %.sroa.4.0.extract.shift.i to i32
  %36 = sub i32 %34, %35
  %37 = add i32 %36, %33
  %38 = zext i32 %37 to i64
  br label %extend_span_with_token.exit

extend_span_with_token.exit:                      ; preds = %30, %31
  %.sroa.311.0.i = phi i64 [ %.sroa.33.0.extract.shift.i, %30 ], [ %38, %31 ]
  %.sroa.311.0.insert.ext.i = shl nuw i64 %.sroa.311.0.i, 16
  %.sroa.311.0.insert.shift.i = and i64 %.sroa.311.0.insert.ext.i, 16711680
  %39 = and i64 %28, -16711681
  %.sroa.010.0.insert.insert.i = or disjoint i64 %.sroa.311.0.insert.shift.i, %39
  store i64 %.sroa.010.0.insert.insert.i, ptr %4, align 8
  br label %40

40:                                               ; preds = %extend_span_with_token.exit, %21, %9
  %.033 = phi ptr [ %22, %21 ], [ %4, %extend_span_with_token.exit ], [ %12, %9 ]
  ret ptr %.033
}